; Function Attrs: nofree norecurse nosync nounwind memory(argmem: readwrite) uwtable
define internal void @eotf_smpte_st2084_inv(double %0, double %1, ptr noundef captures(none) %2) #5 {
  br label %5

4:                                                ; preds = %trc_smpte_st2084.exit
  ret void

5:                                                ; preds = %3, %trc_smpte_st2084.exit
  %indvars.iv = phi i64 [ 0, %3 ], [ %indvars.iv.next, %trc_smpte_st2084.exit ]
  %6 = getelementptr inbounds nuw double, ptr %2, i64 %indvars.iv
  %7 = load double, ptr %6, align 8, !tbaa !16
  %8 = fcmp nsz olt double %7, 0.000000e+00
  br i1 %8, label %trc_smpte_st2084.exit, label %9

9:                                                ; preds = %5
  %10 = fdiv nsz double %7, 1.000000e+04
  %11 = tail call nsz double @llvm.pow.f64(double %10, double 0x3FC4640000000000)
  %12 = tail call nsz double @llvm.fmuladd.f64(double %11, double 0x4032DA0000000000, double 0x3FEAC00000000000)
  %13 = tail call nsz double @llvm.fmuladd.f64(double %11, double 1.868750e+01, double 1.000000e+00)
  %14 = fdiv nsz double %12, %13
  %15 = tail call nsz double @llvm.pow.f64(double %14, double 0x4053B60000000000)
  br label %trc_smpte_st2084.exit

trc_smpte_st2084.exit:                            ; preds = %5, %9
  %16 = phi nsz double [ %15, %9 ], [ 0.000000e+00, %5 ]
  store double %16, ptr %6, align 8, !tbaa !16
  %indvars.iv.next = add nuw nsw i64 %indvars.iv, 1
  %exitcond.not = icmp eq i64 %indvars.iv.next, 3
  br i1 %exitcond.not, label %4, label %5, !llvm.loop !34
}